; Function Attrs: nounwind uwtable
define internal i64 @sqlite_handle_doer(ptr noundef %0, ptr noundef %1) #0 {
  %3 = getelementptr inbounds i8, ptr %0, i64 8
  %4 = load ptr, ptr %3, align 8
  %5 = load ptr, ptr %4, align 8
  %6 = getelementptr inbounds i8, ptr %1, i64 24
  %7 = tail call i32 @sqlite3_exec(ptr noundef %5, ptr noundef nonnull %6, ptr noundef null, ptr noundef null, ptr noundef null) #11
  %.not = icmp eq i32 %7, 0
  br i1 %.not, label %10, label %8

8:                                                ; preds = %2
  %9 = tail call i32 @_pdo_sqlite_error(ptr noundef nonnull %0, ptr noundef null, ptr noundef nonnull @.str.12, i32 noundef 208)
  br label %14

10:                                               ; preds = %2
  %11 = load ptr, ptr %4, align 8
  %12 = tail call i32 @sqlite3_changes(ptr noundef %11) #11
  %13 = sext i32 %12 to i64
  br label %14

14:                                               ; preds = %10, %8
  %.0 = phi i64 [ -1, %8 ], [ %13, %10 ]
  ret i64 %.0
}